target datalayout = "e-m:e-p270:32:32-p271:32:32-p272:64:64-i64:64-i128:128-f80:128-n8:16:32:64-S128"
target triple = "x86_64-unknown-linux-gnu"

%"class.icu_75::CharsetDetector" = type { ptr, ptr, i32, i8, i8, ptr }

@_ZL19fCSRecognizers_size = internal global i32 0, align 4

; Function Attrs: mustprogress nounwind uwtable
define void @_ZN6icu_7515CharsetDetectorD2Ev(ptr noundef nonnull align 8 dereferenceable(32) %this) unnamed_addr #3 align 2 personality ptr @__gxx_personality_v0 {
entry:
  %this.addr = alloca ptr, align 8
  %i = alloca i32, align 4
  store ptr %this, ptr %this.addr, align 8
  %this1 = load ptr, ptr %this.addr, align 8
  %textIn = getelementptr inbounds %"class.icu_75::CharsetDetector", ptr %this1, i32 0, i32 0
  %0 = load ptr, ptr %textIn, align 8
  %isnull = icmp eq ptr %0, null
  br i1 %isnull, label %delete.end, label %delete.notnull

delete.notnull:                                   ; preds = %entry
  call void @_ZN6icu_759InputTextD1Ev(ptr noundef nonnull align 8 dereferenceable(52) %0) #9
  call void @_ZN6icu_757UMemorydlEPv(ptr noundef %0) #9
  br label %delete.end

delete.end:                                       ; preds = %delete.notnull, %entry
  store i32 0, ptr %i, align 4
  br label %for.cond

for.cond:                                         ; preds = %for.inc, %delete.end
  %1 = load i32, ptr %i, align 4
  %2 = load i32, ptr @_ZL19fCSRecognizers_size, align 4
  %cmp = icmp slt i32 %1, %2
  br i1 %cmp, label %for.body, label %for.end

for.body:                                         ; preds = %for.cond
  %resultArray = getelementptr inbounds %"class.icu_75::CharsetDetector", ptr %this1, i32 0, i32 1
  %3 = load ptr, ptr %resultArray, align 8
  %4 = load i32, ptr %i, align 4
  %idxprom = sext i32 %4 to i64
  %arrayidx = getelementptr inbounds ptr, ptr %3, i64 %idxprom
  %5 = load ptr, ptr %arrayidx, align 8
  %isnull2 = icmp eq ptr %5, null
  br i1 %isnull2, label %delete.end4, label %delete.notnull3

delete.notnull3:                                  ; preds = %for.body
  call void @_ZN6icu_757UMemorydlEPv(ptr noundef %5) #9
  br label %delete.end4

delete.end4:                                      ; preds = %delete.notnull3, %for.body
  br label %for.inc

for.inc:                                          ; preds = %delete.end4
  %6 = load i32, ptr %i, align 4
  %add = add nsw i32 %6, 1
  store i32 %add, ptr %i, align 4
  br label %for.cond, !llvm.loop !7

for.end:                                          ; preds = %for.cond
  %resultArray5 = getelementptr inbounds %"class.icu_75::CharsetDetector", ptr %this1, i32 0, i32 1
  %7 = load ptr, ptr %resultArray5, align 8
  invoke void @uprv_free_75(ptr noundef %7)
          to label %invoke.cont unwind label %terminate.lpad

invoke.cont:                                      ; preds = %for.end
  %fEnabledRecognizers = getelementptr inbounds %"class.icu_75::CharsetDetector", ptr %this1, i32 0, i32 5
  %8 = load ptr, ptr %fEnabledRecognizers, align 8
  %tobool = icmp ne ptr %8, null
  br i1 %tobool, label %if.then, label %if.end

if.then:                                          ; preds = %invoke.cont
  %fEnabledRecognizers6 = getelementptr inbounds %"class.icu_75::CharsetDetector", ptr %this1, i32 0, i32 5
  %9 = load ptr, ptr %fEnabledRecognizers6, align 8
  invoke void @uprv_free_75(ptr noundef %9)
          to label %invoke.cont7 unwind label %terminate.lpad

invoke.cont7:                                     ; preds = %if.then
  br label %if.end

if.end:                                           ; preds = %invoke.cont7, %invoke.cont
  ret void

terminate.lpad:                                   ; preds = %if.then, %for.end
  %10 = landingpad { ptr, i32 }
          catch ptr null
  %11 = extractvalue { ptr, i32 } %10, 0
  call void @__clang_call_terminate(ptr %11) #11
  unreachable
}