; Function Attrs: mustprogress nounwind uwtable
define void @_ZN6icu_7515CharsetDetectorD2Ev(ptr nocapture noundef nonnull readonly align 8 dereferenceable(32) %this) unnamed_addr #4 align 2 personality ptr @__gxx_personality_v0 {
entry:
  %0 = load ptr, ptr %this, align 8
  %isnull = icmp eq ptr %0, null
  br i1 %isnull, label %delete.end, label %delete.notnull

delete.notnull:                                   ; preds = %entry
  tail call void @_ZN6icu_759InputTextD1Ev(ptr noundef nonnull align 8 dereferenceable(52) %0) #14
  tail call void @_ZN6icu_757UMemorydlEPv(ptr noundef nonnull %0) #14
  br label %delete.end

delete.end:                                       ; preds = %delete.notnull, %entry
  %.b6 = load i1, ptr @_ZL19fCSRecognizers_size, align 4
  br i1 %.b6, label %for.body.lr.ph, label %for.end

for.body.lr.ph:                                   ; preds = %delete.end
  %resultArray = getelementptr inbounds i8, ptr %this, i64 8
  br label %for.body

for.body:                                         ; preds = %for.body.lr.ph, %for.inc
  %indvars.iv = phi i64 [ 0, %for.body.lr.ph ], [ %indvars.iv.next, %for.inc ]
  %1 = load ptr, ptr %resultArray, align 8
  %arrayidx = getelementptr inbounds ptr, ptr %1, i64 %indvars.iv
  %2 = load ptr, ptr %arrayidx, align 8
  %isnull2 = icmp eq ptr %2, null
  br i1 %isnull2, label %for.inc, label %delete.notnull3

delete.notnull3:                                  ; preds = %for.body
  tail call void @_ZN6icu_757UMemorydlEPv(ptr noundef nonnull %2) #14
  %.b.pre = load i1, ptr @_ZL19fCSRecognizers_size, align 4
  br label %for.inc

for.inc:                                          ; preds = %for.body, %delete.notnull3
  %.b = phi i1 [ true, %for.body ], [ %.b.pre, %delete.notnull3 ]
  %indvars.iv.next = add nuw nsw i64 %indvars.iv, 1
  %cmp5 = icmp ult i64 %indvars.iv, 27
  %cmp = and i1 %.b, %cmp5
  br i1 %cmp, label %for.body, label %for.end, !llvm.loop !7

for.end:                                          ; preds = %for.inc, %delete.end
  %resultArray5 = getelementptr inbounds i8, ptr %this, i64 8
  %3 = load ptr, ptr %resultArray5, align 8
  invoke void @uprv_free_75(ptr noundef %3)
          to label %invoke.cont unwind label %terminate.lpad

invoke.cont:                                      ; preds = %for.end
  %fEnabledRecognizers = getelementptr inbounds i8, ptr %this, i64 24
  %4 = load ptr, ptr %fEnabledRecognizers, align 8
  %tobool.not = icmp eq ptr %4, null
  br i1 %tobool.not, label %if.end, label %if.then

if.then:                                          ; preds = %invoke.cont
  invoke void @uprv_free_75(ptr noundef nonnull %4)
          to label %if.end unwind label %terminate.lpad

if.end:                                           ; preds = %if.then, %invoke.cont
  ret void

terminate.lpad:                                   ; preds = %if.then, %for.end
  %5 = landingpad { ptr, i32 }
          catch ptr null
  %6 = extractvalue { ptr, i32 } %5, 0
  tail call void @__clang_call_terminate(ptr %6) #16
  unreachable
}